target datalayout = "e-m:e-p270:32:32-p271:32:32-p272:64:64-i64:64-i128:128-f80:128-n8:16:32:64-S128"
target triple = "x86_64-unknown-linux-gnu"

%"class.lp::int_gcd_test" = type <{ ptr, ptr, i32, i32, %class.rational, %class.rational, %class.rational, %class.svector, %class.vector.0, %class.svector, i32, [4 x i8] }>
%class.rational = type { %class.mpq }
%class.mpq = type { %class.mpz, %class.mpz }
%class.mpz = type { i32, i8, ptr }
%class.vector.0 = type { ptr }
%class.svector = type { %class.vector }
%class.vector = type { ptr }
%"struct.lp::lp_settings" = type <{ %"class.lp::lp_settings::default_lp_resource_limit", ptr, ptr, ptr, %"struct.lp::statistics", %class.random_gen, i32, i32, i32, i8, [3 x i8], i32, i8, [3 x i8], i32, [4 x i8], double, i8, i8, [2 x i8], i32, i32, i8, [3 x i8], i32, i8, [3 x i8], i32, i8, [3 x i8], i32, i32, i32, i32, i8, [3 x i8], i32, i32, i32, i8, i8, i8, [5 x i8] }>
%"class.lp::lp_settings::default_lp_resource_limit" = type { %"class.lp::lp_resource_limit", ptr, %class.stopwatch }
%"class.lp::lp_resource_limit" = type { ptr }
%class.stopwatch = type <{ %"class.std::chrono::time_point", %"class.std::chrono::duration", i8, [7 x i8] }>
%"class.std::chrono::time_point" = type { %"class.std::chrono::duration" }
%"class.std::chrono::duration" = type { i64 }
%"struct.lp::statistics" = type { i32, i32, i32, i32, i32, i32, i32, i32, i32, i32, i32, i32, i32, i32, i32, i32, i32, i32, i32, i32, i32, i32, i32, i32, i32, i32, i32, i32, i32, i32, i32 }
%class.random_gen = type { i32 }

; Function Attrs: mustprogress nounwind uwtable
define linkonce_odr hidden noundef nonnull align 4 dereferenceable(124) ptr @_ZN2lp11lp_settings5statsEv(ptr noundef nonnull align 8 dereferenceable(299) %this) #4 comdat align 2 {
entry:
  %this.addr = alloca ptr, align 8
  store ptr %this, ptr %this.addr, align 8
  %this1 = load ptr, ptr %this.addr, align 8
  %m_stats = getelementptr inbounds %"struct.lp::lp_settings", ptr %this1, i32 0, i32 4
  ret ptr %m_stats
}

; Function Attrs: mustprogress uwtable
define hidden noundef i32 @_ZN2lp12int_gcd_testclEv(ptr noundef nonnull align 8 dereferenceable(148) %this) #5 align 2 {
entry:
  %retval = alloca i32, align 4
  %this.addr = alloca ptr, align 8
  store ptr %this, ptr %this.addr, align 8
  %this1 = load ptr, ptr %this.addr, align 8
  %lia = getelementptr inbounds %"class.lp::int_gcd_test", ptr %this1, i32 0, i32 0
  %0 = load ptr, ptr %lia, align 8
  %call = call noundef nonnull align 8 dereferenceable(299) ptr @_ZN2lp10int_solver8settingsEv(ptr noundef nonnull align 8 dereferenceable(504) %0)
  %call2 = call noundef nonnull align 4 dereferenceable(124) ptr @_ZN2lp11lp_settings5statsEv(ptr noundef nonnull align 8 dereferenceable(299) %call)
  %m_gcd_calls = getelementptr inbounds %"struct.lp::statistics", ptr %call2, i32 0, i32 8
  %1 = load i32, ptr %m_gcd_calls, align 4
  %inc = add i32 %1, 1
  store i32 %inc, ptr %m_gcd_calls, align 4
  %call3 = call noundef zeroext i1 @_ZN2lp12int_gcd_test8gcd_testEv(ptr noundef nonnull align 8 dereferenceable(148) %this1)
  br i1 %call3, label %if.then, label %if.else

if.then:                                          ; preds = %entry
  %m_next_gcd = getelementptr inbounds %"class.lp::int_gcd_test", ptr %this1, i32 0, i32 2
  %2 = load i32, ptr %m_next_gcd, align 8
  %inc4 = add i32 %2, 1
  store i32 %inc4, ptr %m_next_gcd, align 8
  %m_delay = getelementptr inbounds %"class.lp::int_gcd_test", ptr %this1, i32 0, i32 3
  store i32 %2, ptr %m_delay, align 4
  store i32 5, ptr %retval, align 4
  br label %return

if.else:                                          ; preds = %entry
  %m_next_gcd5 = getelementptr inbounds %"class.lp::int_gcd_test", ptr %this1, i32 0, i32 2
  store i32 0, ptr %m_next_gcd5, align 8
  %m_delay6 = getelementptr inbounds %"class.lp::int_gcd_test", ptr %this1, i32 0, i32 3
  store i32 0, ptr %m_delay6, align 4
  %lia7 = getelementptr inbounds %"class.lp::int_gcd_test", ptr %this1, i32 0, i32 0
  %3 = load ptr, ptr %lia7, align 8
  %call8 = call noundef nonnull align 8 dereferenceable(299) ptr @_ZN2lp10int_solver8settingsEv(ptr noundef nonnull align 8 dereferenceable(504) %3)
  %call9 = call noundef nonnull align 4 dereferenceable(124) ptr @_ZN2lp11lp_settings5statsEv(ptr noundef nonnull align 8 dereferenceable(299) %call8)
  %m_gcd_conflicts = getelementptr inbounds %"struct.lp::statistics", ptr %call9, i32 0, i32 9
  %4 = load i32, ptr %m_gcd_conflicts, align 4
  %inc10 = add i32 %4, 1
  store i32 %inc10, ptr %m_gcd_conflicts, align 4
  store i32 3, ptr %retval, align 4
  br label %return

return:                                           ; preds = %if.else, %if.then
  %5 = load i32, ptr %retval, align 4
  ret i32 %5
}