; Function Attrs: mustprogress uwtable
define hidden noundef i32 @_ZN2lp12int_gcd_testclEv(ptr noundef nonnull align 8 dereferenceable(148) %this) local_unnamed_addr #5 align 2 {
entry:
  %0 = load ptr, ptr %this, align 8
  %call = tail call noundef nonnull align 8 dereferenceable(299) ptr @_ZN2lp10int_solver8settingsEv(ptr noundef nonnull align 8 dereferenceable(504) %0)
  %m_gcd_calls = getelementptr inbounds i8, ptr %call, i64 96
  %1 = load i32, ptr %m_gcd_calls, align 8
  %inc = add i32 %1, 1
  store i32 %inc, ptr %m_gcd_calls, align 8
  %call3 = tail call noundef zeroext i1 @_ZN2lp12int_gcd_test8gcd_testEv(ptr noundef nonnull align 8 dereferenceable(148) %this)
  %m_next_gcd = getelementptr inbounds i8, ptr %this, i64 16
  br i1 %call3, label %if.then, label %if.else

if.then:                                          ; preds = %entry
  %2 = load i32, ptr %m_next_gcd, align 8
  %inc4 = add i32 %2, 1
  store i32 %inc4, ptr %m_next_gcd, align 8
  %m_delay = getelementptr inbounds i8, ptr %this, i64 20
  store i32 %2, ptr %m_delay, align 4
  br label %return

if.else:                                          ; preds = %entry
  store i32 0, ptr %m_next_gcd, align 8
  %m_delay6 = getelementptr inbounds i8, ptr %this, i64 20
  store i32 0, ptr %m_delay6, align 4
  %3 = load ptr, ptr %this, align 8
  %call8 = tail call noundef nonnull align 8 dereferenceable(299) ptr @_ZN2lp10int_solver8settingsEv(ptr noundef nonnull align 8 dereferenceable(504) %3)
  %m_gcd_conflicts = getelementptr inbounds i8, ptr %call8, i64 100
  %4 = load i32, ptr %m_gcd_conflicts, align 4
  %inc10 = add i32 %4, 1
  store i32 %inc10, ptr %m_gcd_conflicts, align 4
  br label %return

return:                                           ; preds = %if.else, %if.then
  %retval.0 = phi i32 [ 5, %if.then ], [ 3, %if.else ]
  ret i32 %retval.0
}